target datalayout = "e-m:e-p270:32:32-p271:32:32-p272:64:64-i64:64-i128:128-f80:128-n8:16:32:64-S128"
target triple = "x86_64-pc-linux-gnu"

%struct.CLzma2Dec = type { %struct.CLzmaDec, i32, i32, i32, i8, i32, i32, i32 }
%struct.CLzmaDec = type { %struct._CLzmaProps, ptr, ptr, ptr, i32, i32, i64, i64, i32, i32, i32, [4 x i32], i32, i32, i32, i32, i32, [20 x i8] }
%struct._CLzmaProps = type { i32, i32, i32, i32 }

; Function Attrs: nounwind uwtable
define void @Lzma2Dec_Init(ptr noundef %0) #0 {
  %2 = alloca ptr, align 8
  store ptr %0, ptr %2, align 8
  %3 = load ptr, ptr %2, align 8
  %4 = getelementptr inbounds %struct.CLzma2Dec, ptr %3, i32 0, i32 3
  store i32 0, ptr %4, align 8
  %5 = load ptr, ptr %2, align 8
  %6 = getelementptr inbounds %struct.CLzma2Dec, ptr %5, i32 0, i32 5
  store i32 1, ptr %6, align 8
  %7 = load ptr, ptr %2, align 8
  %8 = getelementptr inbounds %struct.CLzma2Dec, ptr %7, i32 0, i32 6
  store i32 1, ptr %8, align 4
  %9 = load ptr, ptr %2, align 8
  %10 = getelementptr inbounds %struct.CLzma2Dec, ptr %9, i32 0, i32 7
  store i32 1, ptr %10, align 8
  %11 = load ptr, ptr %2, align 8
  %12 = getelementptr inbounds %struct.CLzma2Dec, ptr %11, i32 0, i32 0
  call void @LzmaDec_Init(ptr noundef %12)
  ret void
}