; Function Attrs: nounwind uwtable
define void @Lzma2Dec_Init(ptr noundef initializes((144, 148), (152, 164)) %0) local_unnamed_addr #0 {
  %2 = getelementptr inbounds nuw i8, ptr %0, i64 144
  store i32 0, ptr %2, align 8
  %3 = getelementptr inbounds nuw i8, ptr %0, i64 152
  store i32 1, ptr %3, align 8
  %4 = getelementptr inbounds nuw i8, ptr %0, i64 156
  store i32 1, ptr %4, align 4
  %5 = getelementptr inbounds nuw i8, ptr %0, i64 160
  store i32 1, ptr %5, align 8
  tail call void @LzmaDec_Init(ptr noundef %0) #4
  ret void
}